target datalayout = "e-m:e-p270:32:32-p271:32:32-p272:64:64-i64:64-i128:128-f80:128-n8:16:32:64-S128"
target triple = "x86_64-unknown-linux-gnu"

%"struct.q::path" = type { ptr, i16, i16, ptr, i32, ptr }

; Function Attrs: mustprogress nounwind uwtable
define hidden noundef zeroext i1 @_ZN1q8is_equalEPKNS_4pathES2_(ptr noundef %p1, ptr noundef %p2) #4 {
entry:
  %retval = alloca i1, align 1
  %p1.addr = alloca ptr, align 8
  %p2.addr = alloca ptr, align 8
  store ptr %p1, ptr %p1.addr, align 8
  store ptr %p2, ptr %p2.addr, align 8
  br label %while.body

while.body:                                       ; preds = %if.end20, %entry
  %0 = load ptr, ptr %p1.addr, align 8
  %m_label = getelementptr inbounds %"struct.q::path", ptr %0, i32 0, i32 0
  %1 = load ptr, ptr %m_label, align 8
  %2 = load ptr, ptr %p2.addr, align 8
  %m_label1 = getelementptr inbounds %"struct.q::path", ptr %2, i32 0, i32 0
  %3 = load ptr, ptr %m_label1, align 8
  %cmp = icmp ne ptr %1, %3
  br i1 %cmp, label %if.then, label %lor.lhs.false

lor.lhs.false:                                    ; preds = %while.body
  %4 = load ptr, ptr %p1.addr, align 8
  %m_arg_idx = getelementptr inbounds %"struct.q::path", ptr %4, i32 0, i32 1
  %5 = load i16, ptr %m_arg_idx, align 8
  %conv = zext i16 %5 to i32
  %6 = load ptr, ptr %p2.addr, align 8
  %m_arg_idx2 = getelementptr inbounds %"struct.q::path", ptr %6, i32 0, i32 1
  %7 = load i16, ptr %m_arg_idx2, align 8
  %conv3 = zext i16 %7 to i32
  %cmp4 = icmp ne i32 %conv, %conv3
  br i1 %cmp4, label %if.then, label %lor.lhs.false5

lor.lhs.false5:                                   ; preds = %lor.lhs.false
  %8 = load ptr, ptr %p1.addr, align 8
  %m_pattern_idx = getelementptr inbounds %"struct.q::path", ptr %8, i32 0, i32 4
  %9 = load i32, ptr %m_pattern_idx, align 8
  %10 = load ptr, ptr %p2.addr, align 8
  %m_pattern_idx6 = getelementptr inbounds %"struct.q::path", ptr %10, i32 0, i32 4
  %11 = load i32, ptr %m_pattern_idx6, align 8
  %cmp7 = icmp ne i32 %9, %11
  br i1 %cmp7, label %if.then, label %lor.lhs.false8

lor.lhs.false8:                                   ; preds = %lor.lhs.false5
  %12 = load ptr, ptr %p1.addr, align 8
  %m_child = getelementptr inbounds %"struct.q::path", ptr %12, i32 0, i32 5
  %13 = load ptr, ptr %m_child, align 8
  %cmp9 = icmp eq ptr %13, null
  %conv10 = zext i1 %cmp9 to i32
  %14 = load ptr, ptr %p2.addr, align 8
  %m_child11 = getelementptr inbounds %"struct.q::path", ptr %14, i32 0, i32 5
  %15 = load ptr, ptr %m_child11, align 8
  %cmp12 = icmp eq ptr %15, null
  %conv13 = zext i1 %cmp12 to i32
  %cmp14 = icmp ne i32 %conv10, %conv13
  br i1 %cmp14, label %if.then, label %if.end

if.then:                                          ; preds = %lor.lhs.false8, %lor.lhs.false5, %lor.lhs.false, %while.body
  store i1 false, ptr %retval, align 1
  br label %return

if.end:                                           ; preds = %lor.lhs.false8
  %16 = load ptr, ptr %p1.addr, align 8
  %m_child15 = getelementptr inbounds %"struct.q::path", ptr %16, i32 0, i32 5
  %17 = load ptr, ptr %m_child15, align 8
  %cmp16 = icmp eq ptr %17, null
  br i1 %cmp16, label %land.lhs.true, label %if.end20

land.lhs.true:                                    ; preds = %if.end
  %18 = load ptr, ptr %p2.addr, align 8
  %m_child17 = getelementptr inbounds %"struct.q::path", ptr %18, i32 0, i32 5
  %19 = load ptr, ptr %m_child17, align 8
  %cmp18 = icmp eq ptr %19, null
  br i1 %cmp18, label %if.then19, label %if.end20

if.then19:                                        ; preds = %land.lhs.true
  store i1 true, ptr %retval, align 1
  br label %return

if.end20:                                         ; preds = %land.lhs.true, %if.end
  %20 = load ptr, ptr %p1.addr, align 8
  %m_child21 = getelementptr inbounds %"struct.q::path", ptr %20, i32 0, i32 5
  %21 = load ptr, ptr %m_child21, align 8
  store ptr %21, ptr %p1.addr, align 8
  %22 = load ptr, ptr %p2.addr, align 8
  %m_child22 = getelementptr inbounds %"struct.q::path", ptr %22, i32 0, i32 5
  %23 = load ptr, ptr %m_child22, align 8
  store ptr %23, ptr %p2.addr, align 8
  br label %while.body, !llvm.loop !26

return:                                           ; preds = %if.then19, %if.then
  %24 = load i1, ptr %retval, align 1
  ret i1 %24
}