; Function Attrs: mustprogress nofree norecurse nosync nounwind willreturn memory(read, inaccessiblemem: none) uwtable
define hidden noundef zeroext i1 @_ZN1q8is_equalEPKNS_4pathES2_(ptr nocapture noundef readonly %p1, ptr nocapture noundef readonly %p2) local_unnamed_addr #3 {
entry:
  br label %while.body

while.body:                                       ; preds = %if.end, %entry
  %p1.addr.0 = phi ptr [ %p1, %entry ], [ %6, %if.end ]
  %p2.addr.0 = phi ptr [ %p2, %entry ], [ %7, %if.end ]
  %0 = load ptr, ptr %p1.addr.0, align 8
  %1 = load ptr, ptr %p2.addr.0, align 8
  %cmp.not = icmp eq ptr %0, %1
  br i1 %cmp.not, label %lor.lhs.false, label %return

lor.lhs.false:                                    ; preds = %while.body
  %m_arg_idx = getelementptr inbounds i8, ptr %p1.addr.0, i64 8
  %2 = load i16, ptr %m_arg_idx, align 8
  %m_arg_idx2 = getelementptr inbounds i8, ptr %p2.addr.0, i64 8
  %3 = load i16, ptr %m_arg_idx2, align 8
  %cmp4.not = icmp eq i16 %2, %3
  br i1 %cmp4.not, label %lor.lhs.false5, label %return

lor.lhs.false5:                                   ; preds = %lor.lhs.false
  %m_pattern_idx = getelementptr inbounds i8, ptr %p1.addr.0, i64 24
  %4 = load i32, ptr %m_pattern_idx, align 8
  %m_pattern_idx6 = getelementptr inbounds i8, ptr %p2.addr.0, i64 24
  %5 = load i32, ptr %m_pattern_idx6, align 8
  %cmp7.not = icmp eq i32 %4, %5
  br i1 %cmp7.not, label %lor.lhs.false8, label %return

lor.lhs.false8:                                   ; preds = %lor.lhs.false5
  %m_child = getelementptr inbounds i8, ptr %p1.addr.0, i64 32
  %6 = load ptr, ptr %m_child, align 8
  %cmp9 = icmp eq ptr %6, null
  %m_child11 = getelementptr inbounds i8, ptr %p2.addr.0, i64 32
  %7 = load ptr, ptr %m_child11, align 8
  %cmp12 = icmp eq ptr %7, null
  %8 = xor i1 %cmp9, %cmp12
  br i1 %8, label %return, label %if.end

if.end:                                           ; preds = %lor.lhs.false8
  %brmerge.demorgan = and i1 %cmp9, %cmp12
  br i1 %brmerge.demorgan, label %return, label %while.body, !llvm.loop !26

return:                                           ; preds = %if.end, %while.body, %lor.lhs.false, %lor.lhs.false5, %lor.lhs.false8
  %retval.0 = phi i1 [ false, %lor.lhs.false8 ], [ false, %lor.lhs.false5 ], [ false, %lor.lhs.false ], [ false, %while.body ], [ true, %if.end ]
  ret i1 %retval.0
}